target datalayout = "e-m:e-p270:32:32-p271:32:32-p272:64:64-i64:64-i128:128-f80:128-n8:16:32:64-S128"
target triple = "x86_64-unknown-linux-gnu"

%struct.CPUDebug = type { %struct.disassemble_info, ptr }
%struct.disassemble_info = type { ptr, ptr, ptr, i32, i32, i64, i32, ptr, i32, i64, ptr, ptr, ptr, ptr, ptr, ptr, ptr, i64, i32, i32, i32, i32, i8, i8, i8, i32, i64, i64, ptr, ptr, i32, i32, i32, i32 }
%struct._GString = type { ptr, i64, i64 }

@.str = private unnamed_addr constant [1 x i8] zeroinitializer, align 1
@.str.1 = private unnamed_addr constant [48 x i8] c"0x%08lx: Asm output not supported on this arch\0A\00", align 1
@.str.2 = private unnamed_addr constant [11 x i8] c"0x%08lx:  \00", align 1

; Function Attrs: nounwind sspstrong uwtable
define internal void @g_autoptr_cleanup_gstring_free(ptr noundef %string) #0 {
entry:
  %string.addr = alloca ptr, align 8
  store ptr %string, ptr %string.addr, align 8
  %0 = load ptr, ptr %string.addr, align 8
  %tobool = icmp ne ptr %0, null
  br i1 %tobool, label %if.then, label %if.end

if.then:                                          ; preds = %entry
  %1 = load ptr, ptr %string.addr, align 8
  %call = call ptr @g_string_free(ptr noundef %1, i32 noundef 1)
  br label %if.end

if.end:                                           ; preds = %if.then, %entry
  ret void
}

; Function Attrs: nounwind sspstrong uwtable
define internal void @glib_autoptr_clear_GString(ptr noundef %_ptr) #0 {
entry:
  %_ptr.addr = alloca ptr, align 8
  store ptr %_ptr, ptr %_ptr.addr, align 8
  %0 = load ptr, ptr %_ptr.addr, align 8
  %tobool = icmp ne ptr %0, null
  br i1 %tobool, label %if.then, label %if.end

if.then:                                          ; preds = %entry
  %1 = load ptr, ptr %_ptr.addr, align 8
  call void @g_autoptr_cleanup_gstring_free(ptr noundef %1)
  br label %if.end

if.end:                                           ; preds = %if.then, %entry
  ret void
}

; Function Attrs: nounwind sspstrong uwtable
define internal void @glib_autoptr_cleanup_GString(ptr noundef %_ptr) #0 {
entry:
  %_ptr.addr = alloca ptr, align 8
  store ptr %_ptr, ptr %_ptr.addr, align 8
  %0 = load ptr, ptr %_ptr.addr, align 8
  %1 = load ptr, ptr %0, align 8
  call void @glib_autoptr_clear_GString(ptr noundef %1)
  ret void
}

; Function Attrs: nounwind sspstrong uwtable
define internal ptr @g_string_append_c_inline(ptr noundef %gstring, i8 noundef signext %c) #0 {
entry:
  %gstring.addr = alloca ptr, align 8
  %c.addr = alloca i8, align 1
  store ptr %gstring, ptr %gstring.addr, align 8
  store i8 %c, ptr %c.addr, align 1
  %0 = load ptr, ptr %gstring.addr, align 8
  %len = getelementptr inbounds %struct._GString, ptr %0, i32 0, i32 1
  %1 = load i64, ptr %len, align 8
  %add = add i64 %1, 1
  %2 = load ptr, ptr %gstring.addr, align 8
  %allocated_len = getelementptr inbounds %struct._GString, ptr %2, i32 0, i32 2
  %3 = load i64, ptr %allocated_len, align 8
  %cmp = icmp ult i64 %add, %3
  br i1 %cmp, label %if.then, label %if.else

if.then:                                          ; preds = %entry
  %4 = load i8, ptr %c.addr, align 1
  %5 = load ptr, ptr %gstring.addr, align 8
  %str = getelementptr inbounds %struct._GString, ptr %5, i32 0, i32 0
  %6 = load ptr, ptr %str, align 8
  %7 = load ptr, ptr %gstring.addr, align 8
  %len1 = getelementptr inbounds %struct._GString, ptr %7, i32 0, i32 1
  %8 = load i64, ptr %len1, align 8
  %inc = add i64 %8, 1
  store i64 %inc, ptr %len1, align 8
  %arrayidx = getelementptr i8, ptr %6, i64 %8
  store i8 %4, ptr %arrayidx, align 1
  %9 = load ptr, ptr %gstring.addr, align 8
  %str2 = getelementptr inbounds %struct._GString, ptr %9, i32 0, i32 0
  %10 = load ptr, ptr %str2, align 8
  %11 = load ptr, ptr %gstring.addr, align 8
  %len3 = getelementptr inbounds %struct._GString, ptr %11, i32 0, i32 1
  %12 = load i64, ptr %len3, align 8
  %arrayidx4 = getelementptr i8, ptr %10, i64 %12
  store i8 0, ptr %arrayidx4, align 1
  br label %if.end

if.else:                                          ; preds = %entry
  %13 = load ptr, ptr %gstring.addr, align 8
  %14 = load i8, ptr %c.addr, align 1
  %call = call ptr @g_string_insert_c(ptr noundef %13, i64 noundef -1, i8 noundef signext %14)
  br label %if.end

if.end:                                           ; preds = %if.else, %if.then
  %15 = load ptr, ptr %gstring.addr, align 8
  ret ptr %15
}

; Function Attrs: nounwind sspstrong uwtable
define dso_local void @monitor_disas(ptr noundef %mon, ptr noundef %cpu, i64 noundef %pc, i32 noundef %nb_insn, i1 noundef zeroext %is_physical) #0 {
entry:
  %mon.addr = alloca ptr, align 8
  %cpu.addr = alloca ptr, align 8
  %pc.addr = alloca i64, align 8
  %nb_insn.addr = alloca i32, align 4
  %is_physical.addr = alloca i8, align 1
  %count = alloca i32, align 4
  %i = alloca i32, align 4
  %s = alloca %struct.CPUDebug, align 8
  %ds = alloca ptr, align 8
  %cleanup.dest.slot = alloca i32, align 4
  store ptr %mon, ptr %mon.addr, align 8
  store ptr %cpu, ptr %cpu.addr, align 8
  store i64 %pc, ptr %pc.addr, align 8
  store i32 %nb_insn, ptr %nb_insn.addr, align 4
  %frombool = zext i1 %is_physical to i8
  store i8 %frombool, ptr %is_physical.addr, align 1
  %call = call ptr @g_string_new(ptr noundef @.str)
  store ptr %call, ptr %ds, align 8
  %0 = load ptr, ptr %cpu.addr, align 8
  call void @disas_initialize_debug_target(ptr noundef %s, ptr noundef %0)
  %info = getelementptr inbounds %struct.CPUDebug, ptr %s, i32 0, i32 0
  %fprintf_func = getelementptr inbounds %struct.disassemble_info, ptr %info, i32 0, i32 0
  store ptr @disas_gstring_printf, ptr %fprintf_func, align 8
  %1 = load ptr, ptr %ds, align 8
  %info1 = getelementptr inbounds %struct.CPUDebug, ptr %s, i32 0, i32 0
  %stream = getelementptr inbounds %struct.disassemble_info, ptr %info1, i32 0, i32 1
  store ptr %1, ptr %stream, align 8
  %2 = load i8, ptr %is_physical.addr, align 1
  %tobool = trunc i8 %2 to i1
  br i1 %tobool, label %if.then, label %if.end

if.then:                                          ; preds = %entry
  %info2 = getelementptr inbounds %struct.CPUDebug, ptr %s, i32 0, i32 0
  %read_memory_func = getelementptr inbounds %struct.disassemble_info, ptr %info2, i32 0, i32 11
  store ptr @physical_read_memory, ptr %read_memory_func, align 8
  br label %if.end

if.end:                                           ; preds = %if.then, %entry
  %3 = load i64, ptr %pc.addr, align 8
  %info3 = getelementptr inbounds %struct.CPUDebug, ptr %s, i32 0, i32 0
  %buffer_vma = getelementptr inbounds %struct.disassemble_info, ptr %info3, i32 0, i32 17
  store i64 %3, ptr %buffer_vma, align 8
  %info4 = getelementptr inbounds %struct.CPUDebug, ptr %s, i32 0, i32 0
  %cap_arch = getelementptr inbounds %struct.disassemble_info, ptr %info4, i32 0, i32 30
  %4 = load i32, ptr %cap_arch, align 8
  %cmp = icmp sge i32 %4, 0
  br i1 %cmp, label %land.lhs.true, label %if.end7

land.lhs.true:                                    ; preds = %if.end
  br i1 false, label %if.then5, label %if.end7

if.then5:                                         ; preds = %land.lhs.true
  %5 = load ptr, ptr %mon.addr, align 8
  %6 = load ptr, ptr %ds, align 8
  %str = getelementptr inbounds %struct._GString, ptr %6, i32 0, i32 0
  %7 = load ptr, ptr %str, align 8
  %call6 = call i32 @monitor_puts(ptr noundef %5, ptr noundef %7)
  store i32 1, ptr %cleanup.dest.slot, align 4
  br label %cleanup

if.end7:                                          ; preds = %land.lhs.true, %if.end
  %info8 = getelementptr inbounds %struct.CPUDebug, ptr %s, i32 0, i32 0
  %print_insn = getelementptr inbounds %struct.disassemble_info, ptr %info8, i32 0, i32 14
  %8 = load ptr, ptr %print_insn, align 8
  %tobool9 = icmp ne ptr %8, null
  br i1 %tobool9, label %if.end12, label %if.then10

if.then10:                                        ; preds = %if.end7
  %9 = load ptr, ptr %mon.addr, align 8
  %10 = load i64, ptr %pc.addr, align 8
  %call11 = call i32 (ptr, ptr, ...) @monitor_printf(ptr noundef %9, ptr noundef @.str.1, i64 noundef %10)
  store i32 1, ptr %cleanup.dest.slot, align 4
  br label %cleanup

if.end12:                                         ; preds = %if.end7
  store i32 0, ptr %i, align 4
  br label %for.cond

for.cond:                                         ; preds = %for.inc, %if.end12
  %11 = load i32, ptr %i, align 4
  %12 = load i32, ptr %nb_insn.addr, align 4
  %cmp13 = icmp slt i32 %11, %12
  br i1 %cmp13, label %for.body, label %for.end

for.body:                                         ; preds = %for.cond
  %13 = load ptr, ptr %ds, align 8
  %14 = load i64, ptr %pc.addr, align 8
  call void (ptr, ptr, ...) @g_string_append_printf(ptr noundef %13, ptr noundef @.str.2, i64 noundef %14)
  %info14 = getelementptr inbounds %struct.CPUDebug, ptr %s, i32 0, i32 0
  %print_insn15 = getelementptr inbounds %struct.disassemble_info, ptr %info14, i32 0, i32 14
  %15 = load ptr, ptr %print_insn15, align 8
  %16 = load i64, ptr %pc.addr, align 8
  %info16 = getelementptr inbounds %struct.CPUDebug, ptr %s, i32 0, i32 0
  %call17 = call i32 %15(i64 noundef %16, ptr noundef %info16)
  store i32 %call17, ptr %count, align 4
  %17 = load ptr, ptr %ds, align 8
  %call18 = call ptr @g_string_append_c_inline(ptr noundef %17, i8 noundef signext 10)
  %18 = load i32, ptr %count, align 4
  %cmp19 = icmp slt i32 %18, 0
  br i1 %cmp19, label %if.then20, label %if.end21

if.then20:                                        ; preds = %for.body
  br label %for.end

if.end21:                                         ; preds = %for.body
  %19 = load i32, ptr %count, align 4
  %conv = sext i32 %19 to i64
  %20 = load i64, ptr %pc.addr, align 8
  %add = add i64 %20, %conv
  store i64 %add, ptr %pc.addr, align 8
  br label %for.inc

for.inc:                                          ; preds = %if.end21
  %21 = load i32, ptr %i, align 4
  %inc = add i32 %21, 1
  store i32 %inc, ptr %i, align 4
  br label %for.cond, !llvm.loop !5

for.end:                                          ; preds = %if.then20, %for.cond
  %22 = load ptr, ptr %mon.addr, align 8
  %23 = load ptr, ptr %ds, align 8
  %str22 = getelementptr inbounds %struct._GString, ptr %23, i32 0, i32 0
  %24 = load ptr, ptr %str22, align 8
  %call23 = call i32 @monitor_puts(ptr noundef %22, ptr noundef %24)
  store i32 0, ptr %cleanup.dest.slot, align 4
  br label %cleanup

cleanup:                                          ; preds = %for.end, %if.then10, %if.then5
  call void @glib_autoptr_cleanup_GString(ptr noundef %ds)
  %cleanup.dest = load i32, ptr %cleanup.dest.slot, align 4
  switch i32 %cleanup.dest, label %unreachable [
    i32 0, label %cleanup.cont
    i32 1, label %cleanup.cont
  ]

cleanup.cont:                                     ; preds = %cleanup, %cleanup
  ret void

unreachable:                                      ; preds = %cleanup
  unreachable
}