; Function Attrs: nounwind sspstrong uwtable
define dso_local void @monitor_disas(ptr noundef %mon, ptr noundef %cpu, i64 noundef %pc, i32 noundef %nb_insn, i1 noundef zeroext %is_physical) local_unnamed_addr #0 {
entry:
  %s = alloca %struct.CPUDebug, align 8
  %call = tail call ptr @g_string_new(ptr noundef nonnull @.str) #2
  call void @disas_initialize_debug_target(ptr noundef nonnull %s, ptr noundef %cpu) #2
  store ptr @disas_gstring_printf, ptr %s, align 8
  %stream = getelementptr inbounds nuw i8, ptr %s, i64 8
  store ptr %call, ptr %stream, align 8
  br i1 %is_physical, label %if.then, label %if.end

if.then:                                          ; preds = %entry
  %read_memory_func = getelementptr inbounds nuw i8, ptr %s, i64 80
  store ptr @physical_read_memory, ptr %read_memory_func, align 8
  br label %if.end

if.end:                                           ; preds = %if.then, %entry
  %buffer_vma = getelementptr inbounds nuw i8, ptr %s, i64 128
  store i64 %pc, ptr %buffer_vma, align 8
  %print_insn = getelementptr inbounds nuw i8, ptr %s, i64 104
  %0 = load ptr, ptr %print_insn, align 8
  %tobool9.not = icmp eq ptr %0, null
  br i1 %tobool9.not, label %cleanup, label %for.cond.preheader

for.cond.preheader:                               ; preds = %if.end
  %cmp1312 = icmp sgt i32 %nb_insn, 0
  br i1 %cmp1312, label %for.body.lr.ph, label %cleanup.thread

for.body.lr.ph:                                   ; preds = %for.cond.preheader
  %len.i = getelementptr inbounds nuw i8, ptr %call, i64 8
  %allocated_len.i = getelementptr inbounds nuw i8, ptr %call, i64 16
  br label %for.body

for.body:                                         ; preds = %for.body.lr.ph, %if.end21
  %i.014 = phi i32 [ 0, %for.body.lr.ph ], [ %inc, %if.end21 ]
  %pc.addr.013 = phi i64 [ %pc, %for.body.lr.ph ], [ %add, %if.end21 ]
  call void (ptr, ptr, ...) @g_string_append_printf(ptr noundef %call, ptr noundef nonnull @.str.2, i64 noundef %pc.addr.013) #2
  %1 = load ptr, ptr %print_insn, align 8
  %call17 = call i32 %1(i64 noundef %pc.addr.013, ptr noundef nonnull %s) #2
  %2 = load i64, ptr %len.i, align 8
  %add.i = add i64 %2, 1
  %3 = load i64, ptr %allocated_len.i, align 8
  %cmp.i = icmp ult i64 %add.i, %3
  br i1 %cmp.i, label %if.then.i, label %if.else.i

if.then.i:                                        ; preds = %for.body
  %4 = load ptr, ptr %call, align 8
  store i64 %add.i, ptr %len.i, align 8
  %arrayidx.i = getelementptr i8, ptr %4, i64 %2
  store i8 10, ptr %arrayidx.i, align 1
  %5 = load ptr, ptr %call, align 8
  %6 = load i64, ptr %len.i, align 8
  %arrayidx4.i = getelementptr i8, ptr %5, i64 %6
  store i8 0, ptr %arrayidx4.i, align 1
  br label %g_string_append_c_inline.exit

if.else.i:                                        ; preds = %for.body
  %call.i = call ptr @g_string_insert_c(ptr noundef nonnull %call, i64 noundef -1, i8 noundef signext 10) #2
  br label %g_string_append_c_inline.exit

g_string_append_c_inline.exit:                    ; preds = %if.then.i, %if.else.i
  %cmp19 = icmp slt i32 %call17, 0
  br i1 %cmp19, label %cleanup.thread, label %if.end21

if.end21:                                         ; preds = %g_string_append_c_inline.exit
  %conv = zext nneg i32 %call17 to i64
  %add = add i64 %pc.addr.013, %conv
  %inc = add nuw nsw i32 %i.014, 1
  %exitcond.not = icmp eq i32 %inc, %nb_insn
  br i1 %exitcond.not, label %cleanup.thread, label %for.body, !llvm.loop !5

cleanup.thread:                                   ; preds = %g_string_append_c_inline.exit, %if.end21, %for.cond.preheader
  %7 = load ptr, ptr %call, align 8
  %call23 = call i32 @monitor_puts(ptr noundef %mon, ptr noundef %7) #2
  br label %if.then.i.i

cleanup:                                          ; preds = %if.end
  %call11 = call i32 (ptr, ptr, ...) @monitor_printf(ptr noundef %mon, ptr noundef nonnull @.str.1, i64 noundef %pc) #2
  %tobool.not.i.i = icmp eq ptr %call, null
  br i1 %tobool.not.i.i, label %glib_autoptr_cleanup_GString.exit, label %if.then.i.i

if.then.i.i:                                      ; preds = %cleanup.thread, %cleanup
  %call.i.i.i = call ptr @g_string_free(ptr noundef nonnull %call, i32 noundef 1) #2
  br label %glib_autoptr_cleanup_GString.exit

glib_autoptr_cleanup_GString.exit:                ; preds = %cleanup, %if.then.i.i
  ret void
}